target datalayout = "e-m:e-p270:32:32-p271:32:32-p272:64:64-i64:64-i128:128-f80:128-n8:16:32:64-S128"
target triple = "x86_64-pc-linux-gnu"

%struct.RN = type { ptr, i32, i32, [201 x i8] }
%struct._IO_FILE = type { i32, ptr, ptr, ptr, ptr, ptr, ptr, ptr, ptr, ptr, ptr, ptr, ptr, ptr, i32, i32, i64, i16, i8, [1 x i8], ptr, i64, ptr, ptr, ptr, ptr, i64, i32, [20 x i8] }

; Function Attrs: inlinehint nounwind uwtable
define available_externally i32 @getc_unlocked(ptr noundef %0) #6 {
  %2 = alloca ptr, align 8
  store ptr %0, ptr %2, align 8, !tbaa !9
  %3 = load ptr, ptr %2, align 8, !tbaa !9
  %4 = getelementptr inbounds nuw %struct._IO_FILE, ptr %3, i32 0, i32 1
  %5 = load ptr, ptr %4, align 8, !tbaa !38
  %6 = load ptr, ptr %2, align 8, !tbaa !9
  %7 = getelementptr inbounds nuw %struct._IO_FILE, ptr %6, i32 0, i32 2
  %8 = load ptr, ptr %7, align 8, !tbaa !43
  %9 = icmp uge ptr %5, %8
  %10 = zext i1 %9 to i32
  %11 = sext i32 %10 to i64
  %12 = call i64 @llvm.expect.i64(i64 %11, i64 0)
  %13 = icmp ne i64 %12, 0
  br i1 %13, label %14, label %17

14:                                               ; preds = %1
  %15 = load ptr, ptr %2, align 8, !tbaa !9
  %16 = call i32 @__uflow(ptr noundef %15)
  br label %24

17:                                               ; preds = %1
  %18 = load ptr, ptr %2, align 8, !tbaa !9
  %19 = getelementptr inbounds nuw %struct._IO_FILE, ptr %18, i32 0, i32 1
  %20 = load ptr, ptr %19, align 8, !tbaa !38
  %21 = getelementptr inbounds nuw i8, ptr %20, i32 1
  store ptr %21, ptr %19, align 8, !tbaa !38
  %22 = load i8, ptr %20, align 1, !tbaa !20
  %23 = zext i8 %22 to i32
  br label %24

24:                                               ; preds = %17, %14
  %25 = phi i32 [ %16, %14 ], [ %23, %17 ]
  ret i32 %25
}

; Function Attrs: nounwind uwtable
define internal i32 @nextc(ptr noundef %0) #0 {
  %2 = alloca i32, align 4
  %3 = alloca ptr, align 8
  store ptr %0, ptr %3, align 8, !tbaa !21
  %4 = load ptr, ptr %3, align 8, !tbaa !21
  %5 = getelementptr inbounds nuw %struct.RN, ptr %4, i32 0, i32 2
  %6 = load i32, ptr %5, align 4, !tbaa !30
  %7 = icmp sge i32 %6, 200
  %8 = zext i1 %7 to i32
  %9 = icmp ne i32 %8, 0
  %10 = zext i1 %9 to i32
  %11 = sext i32 %10 to i64
  %12 = call i64 @llvm.expect.i64(i64 %11, i64 0)
  %13 = icmp ne i64 %12, 0
  br i1 %13, label %14, label %18

14:                                               ; preds = %1
  %15 = load ptr, ptr %3, align 8, !tbaa !21
  %16 = getelementptr inbounds nuw %struct.RN, ptr %15, i32 0, i32 3
  %17 = getelementptr inbounds [201 x i8], ptr %16, i64 0, i64 0
  store i8 0, ptr %17, align 8, !tbaa !20
  store i32 0, ptr %2, align 4
  br label %37

18:                                               ; preds = %1
  %19 = load ptr, ptr %3, align 8, !tbaa !21
  %20 = getelementptr inbounds nuw %struct.RN, ptr %19, i32 0, i32 1
  %21 = load i32, ptr %20, align 8, !tbaa !33
  %22 = trunc i32 %21 to i8
  %23 = load ptr, ptr %3, align 8, !tbaa !21
  %24 = getelementptr inbounds nuw %struct.RN, ptr %23, i32 0, i32 3
  %25 = load ptr, ptr %3, align 8, !tbaa !21
  %26 = getelementptr inbounds nuw %struct.RN, ptr %25, i32 0, i32 2
  %27 = load i32, ptr %26, align 4, !tbaa !30
  %28 = add nsw i32 %27, 1
  store i32 %28, ptr %26, align 4, !tbaa !30
  %29 = sext i32 %27 to i64
  %30 = getelementptr inbounds [201 x i8], ptr %24, i64 0, i64 %29
  store i8 %22, ptr %30, align 1, !tbaa !20
  %31 = load ptr, ptr %3, align 8, !tbaa !21
  %32 = getelementptr inbounds nuw %struct.RN, ptr %31, i32 0, i32 0
  %33 = load ptr, ptr %32, align 8, !tbaa !28
  %34 = call i32 @getc_unlocked(ptr noundef %33)
  %35 = load ptr, ptr %3, align 8, !tbaa !21
  %36 = getelementptr inbounds nuw %struct.RN, ptr %35, i32 0, i32 1
  store i32 %34, ptr %36, align 8, !tbaa !33
  store i32 1, ptr %2, align 4
  br label %37

37:                                               ; preds = %18, %14
  %38 = load i32, ptr %2, align 4
  ret i32 %38
}

; Function Attrs: nounwind uwtable
define internal i32 @readdigits(ptr noundef %0, i32 noundef %1) #0 {
  %3 = alloca ptr, align 8
  %4 = alloca i32, align 4
  %5 = alloca i32, align 4
  store ptr %0, ptr %3, align 8, !tbaa !21
  store i32 %1, ptr %4, align 4, !tbaa !18
  call void @llvm.lifetime.start.p0(i64 4, ptr %5) #8
  store i32 0, ptr %5, align 4, !tbaa !18
  br label %6

6:                                                ; preds = %39, %2
  %7 = load i32, ptr %4, align 4, !tbaa !18
  %8 = icmp ne i32 %7, 0
  br i1 %8, label %9, label %21

9:                                                ; preds = %6
  %10 = call ptr @__ctype_b_loc() #9
  %11 = load ptr, ptr %10, align 8, !tbaa !34
  %12 = load ptr, ptr %3, align 8, !tbaa !21
  %13 = getelementptr inbounds nuw %struct.RN, ptr %12, i32 0, i32 1
  %14 = load i32, ptr %13, align 8, !tbaa !33
  %15 = sext i32 %14 to i64
  %16 = getelementptr inbounds i16, ptr %11, i64 %15
  %17 = load i16, ptr %16, align 2, !tbaa !36
  %18 = zext i16 %17 to i32
  %19 = and i32 %18, 4096
  %20 = icmp ne i32 %19, 0
  br i1 %20, label %33, label %37

21:                                               ; preds = %6
  %22 = call ptr @__ctype_b_loc() #9
  %23 = load ptr, ptr %22, align 8, !tbaa !34
  %24 = load ptr, ptr %3, align 8, !tbaa !21
  %25 = getelementptr inbounds nuw %struct.RN, ptr %24, i32 0, i32 1
  %26 = load i32, ptr %25, align 8, !tbaa !33
  %27 = sext i32 %26 to i64
  %28 = getelementptr inbounds i16, ptr %23, i64 %27
  %29 = load i16, ptr %28, align 2, !tbaa !36
  %30 = zext i16 %29 to i32
  %31 = and i32 %30, 2048
  %32 = icmp ne i32 %31, 0
  br i1 %32, label %33, label %37

33:                                               ; preds = %21, %9
  %34 = load ptr, ptr %3, align 8, !tbaa !21
  %35 = call i32 @nextc(ptr noundef %34)
  %36 = icmp ne i32 %35, 0
  br label %37

37:                                               ; preds = %33, %21, %9
  %38 = phi i1 [ false, %21 ], [ false, %9 ], [ %36, %33 ]
  br i1 %38, label %39, label %42

39:                                               ; preds = %37
  %40 = load i32, ptr %5, align 4, !tbaa !18
  %41 = add nsw i32 %40, 1
  store i32 %41, ptr %5, align 4, !tbaa !18
  br label %6

42:                                               ; preds = %37
  %43 = load i32, ptr %5, align 4, !tbaa !18
  call void @llvm.lifetime.end.p0(i64 4, ptr %5) #8
  ret i32 %43
}