; Function Attrs: nounwind uwtable
define internal fastcc i32 @readdigits(ptr noundef nonnull captures(none) %0, i32 noundef range(i32 0, 2) %1) unnamed_addr #0 {
  %.not = icmp eq i32 %1, 0
  %3 = getelementptr inbounds nuw i8, ptr %0, i64 12
  %4 = getelementptr inbounds nuw i8, ptr %0, i64 8
  %5 = getelementptr inbounds nuw i8, ptr %0, i64 16
  %6 = tail call ptr @__ctype_b_loc() #10
  %7 = load ptr, ptr %6, align 8, !tbaa !37
  %8 = load i32, ptr %4, align 8, !tbaa !36
  %9 = sext i32 %8 to i64
  %10 = getelementptr inbounds i16, ptr %7, i64 %9
  %11 = load i16, ptr %10, align 2, !tbaa !39
  br i1 %.not, label %.split.us, label %.split

.split.us:                                        ; preds = %2
  %12 = and i16 %11, 2048
  %.not5.us16 = icmp eq i16 %12, 0
  br i1 %.not5.us16, label %.critedge, label %.lr.ph18

.lr.ph18:                                         ; preds = %.split.us, %32
  %13 = phi i32 [ %33, %32 ], [ %8, %.split.us ]
  %.0.us17 = phi i32 [ %34, %32 ], [ 0, %.split.us ]
  %14 = load i32, ptr %3, align 4, !tbaa !26
  %15 = icmp sgt i32 %14, 199
  br i1 %15, label %nextc.exit.thread, label %16, !prof !12

16:                                               ; preds = %.lr.ph18
  %17 = trunc i32 %13 to i8
  %18 = add nsw i32 %14, 1
  store i32 %18, ptr %3, align 4, !tbaa !26
  %19 = sext i32 %14 to i64
  %20 = getelementptr inbounds [201 x i8], ptr %5, i64 0, i64 %19
  store i8 %17, ptr %20, align 1, !tbaa !16
  %21 = load ptr, ptr %0, align 8, !tbaa !24
  %22 = getelementptr inbounds nuw i8, ptr %21, i64 8
  %23 = load ptr, ptr %22, align 8, !tbaa !29
  %24 = getelementptr inbounds nuw i8, ptr %21, i64 16
  %25 = load ptr, ptr %24, align 8, !tbaa !35
  %.not.i.i.us = icmp ult ptr %23, %25
  br i1 %.not.i.i.us, label %28, label %26, !prof !18

26:                                               ; preds = %16
  %27 = tail call i32 @__uflow(ptr noundef nonnull %21) #9
  br label %32

28:                                               ; preds = %16
  %29 = getelementptr inbounds nuw i8, ptr %23, i64 1
  store ptr %29, ptr %22, align 8, !tbaa !29
  %30 = load i8, ptr %23, align 1, !tbaa !16
  %31 = zext i8 %30 to i32
  br label %32

32:                                               ; preds = %28, %26
  %33 = phi i32 [ %27, %26 ], [ %31, %28 ]
  store i32 %33, ptr %4, align 8, !tbaa !36
  %34 = add nuw nsw i32 %.0.us17, 1
  %35 = load ptr, ptr %6, align 8, !tbaa !37
  %36 = sext i32 %33 to i64
  %37 = getelementptr inbounds i16, ptr %35, i64 %36
  %38 = load i16, ptr %37, align 2, !tbaa !39
  %39 = and i16 %38, 2048
  %.not5.us = icmp eq i16 %39, 0
  br i1 %.not5.us, label %.critedge, label %.lr.ph18

.split:                                           ; preds = %2
  %40 = and i16 %11, 4096
  %.not614 = icmp eq i16 %40, 0
  br i1 %.not614, label %.critedge, label %.lr.ph

.lr.ph:                                           ; preds = %.split, %60
  %41 = phi i32 [ %61, %60 ], [ %8, %.split ]
  %.015 = phi i32 [ %62, %60 ], [ 0, %.split ]
  %42 = load i32, ptr %3, align 4, !tbaa !26
  %43 = icmp sgt i32 %42, 199
  br i1 %43, label %nextc.exit.thread, label %44, !prof !12

nextc.exit.thread:                                ; preds = %.lr.ph, %.lr.ph18
  %.us-phi12 = phi i32 [ %.0.us17, %.lr.ph18 ], [ %.015, %.lr.ph ]
  store i8 0, ptr %5, align 8, !tbaa !16
  br label %.critedge

44:                                               ; preds = %.lr.ph
  %45 = trunc i32 %41 to i8
  %46 = add nsw i32 %42, 1
  store i32 %46, ptr %3, align 4, !tbaa !26
  %47 = sext i32 %42 to i64
  %48 = getelementptr inbounds [201 x i8], ptr %5, i64 0, i64 %47
  store i8 %45, ptr %48, align 1, !tbaa !16
  %49 = load ptr, ptr %0, align 8, !tbaa !24
  %50 = getelementptr inbounds nuw i8, ptr %49, i64 8
  %51 = load ptr, ptr %50, align 8, !tbaa !29
  %52 = getelementptr inbounds nuw i8, ptr %49, i64 16
  %53 = load ptr, ptr %52, align 8, !tbaa !35
  %.not.i.i = icmp ult ptr %51, %53
  br i1 %.not.i.i, label %56, label %54, !prof !18

54:                                               ; preds = %44
  %55 = tail call i32 @__uflow(ptr noundef nonnull %49) #9
  br label %60

56:                                               ; preds = %44
  %57 = getelementptr inbounds nuw i8, ptr %51, i64 1
  store ptr %57, ptr %50, align 8, !tbaa !29
  %58 = load i8, ptr %51, align 1, !tbaa !16
  %59 = zext i8 %58 to i32
  br label %60

60:                                               ; preds = %56, %54
  %61 = phi i32 [ %55, %54 ], [ %59, %56 ]
  store i32 %61, ptr %4, align 8, !tbaa !36
  %62 = add nuw nsw i32 %.015, 1
  %63 = load ptr, ptr %6, align 8, !tbaa !37
  %64 = sext i32 %61 to i64
  %65 = getelementptr inbounds i16, ptr %63, i64 %64
  %66 = load i16, ptr %65, align 2, !tbaa !39
  %67 = and i16 %66, 4096
  %.not6 = icmp eq i16 %67, 0
  br i1 %.not6, label %.critedge, label %.lr.ph

.critedge:                                        ; preds = %60, %32, %.split.us, %.split, %nextc.exit.thread
  %.011 = phi i32 [ %.us-phi12, %nextc.exit.thread ], [ 0, %.split.us ], [ 0, %.split ], [ %34, %32 ], [ %62, %60 ]
  ret i32 %.011
}